; Function Attrs: mustprogress uwtable
define void @_ZN3gmx21FileNameOptionManagerC2Ev(ptr noundef nonnull align 8 dereferenceable(16) initializes((0, 8)) %0) unnamed_addr #0 align 2 personality ptr @__gxx_personality_v0 {
  store ptr getelementptr inbounds nuw inrange(-16, 16) (i8, ptr @_ZTVN3gmx21FileNameOptionManagerE, i64 16), ptr %0, align 8, !tbaa !3
  %2 = invoke noalias noundef nonnull dereferenceable(48) ptr @_Znwm(i64 noundef 48) #19
          to label %3 unwind label %11

3:                                                ; preds = %1
  %4 = invoke noundef nonnull align 8 dereferenceable(8) ptr @_ZN3gmx26defaultFileInputRedirectorEv()
          to label %5 unwind label %13

5:                                                ; preds = %3
  store ptr %4, ptr %2, align 8, !tbaa !6
  %6 = getelementptr inbounds nuw i8, ptr %2, i64 8
  %7 = getelementptr inbounds nuw i8, ptr %2, i64 24
  store ptr %7, ptr %6, align 8, !tbaa !16
  %8 = getelementptr inbounds nuw i8, ptr %2, i64 16
  store i64 0, ptr %8, align 8, !tbaa !17
  store i8 0, ptr %7, align 1, !tbaa !18
  %9 = getelementptr inbounds nuw i8, ptr %2, i64 40
  store i8 0, ptr %9, align 8, !tbaa !19
  %10 = getelementptr inbounds nuw i8, ptr %0, i64 8
  store ptr %2, ptr %10, align 8, !tbaa !20
  ret void

11:                                               ; preds = %1
  %12 = landingpad { ptr, i32 }
          cleanup
  br label %15

13:                                               ; preds = %3
  %14 = landingpad { ptr, i32 }
          cleanup
  tail call void @_ZdlPvm(ptr noundef nonnull %2, i64 noundef 48) #20
  br label %15

15:                                               ; preds = %13, %11
  %.pn = phi { ptr, i32 } [ %14, %13 ], [ %12, %11 ]
  tail call void @_ZN3gmx14IOptionManagerD2Ev(ptr noundef nonnull align 8 dereferenceable(8) %0) #21
  resume { ptr, i32 } %.pn
}